target datalayout = "e-m:e-p270:32:32-p271:32:32-p272:64:64-i64:64-i128:128-f80:128-n8:16:32:64-S128"
target triple = "x86_64-pc-linux-gnu"

%struct.H5B_class_t = type { i32, i64, ptr, ptr, ptr, ptr, ptr, ptr, i8, i8, i32, ptr, ptr, ptr, ptr }
%struct.H5B_shared_t = type { ptr, i32, i64, i64, i64, i64, i64, ptr, ptr, ptr }

@H5B_init_g = global i8 0, align 1
@H5_libterm_g = external global i8, align 1
@.str.3 = private unnamed_addr constant [97 x i8] c"generated/home/dtcxzyw/WorkSpace/Projects/compilers/llvm-opt-benchmark/bench/hdf5/hdf5/src/H5B.c\00", align 1
@H5E_BTREE_g = external global i64, align 8
@H5E_CANTALLOC_g = external global i64, align 8
@__func__.H5B_shared_new = private unnamed_addr constant [15 x i8] c"H5B_shared_new\00", align 1
@.str.29 = private unnamed_addr constant [48 x i8] c"memory allocation failed for shared B-tree info\00", align 1
@.str.30 = private unnamed_addr constant [41 x i8] c"memory allocation failed for B-tree page\00", align 1
@.str.31 = private unnamed_addr constant [48 x i8] c"memory allocation failed for B-tree native keys\00", align 1
@H5_H5B_shared_t_reg_free_list = internal global { i8, [3 x i8], i32, i32, [4 x i8], ptr, i64, ptr } { i8 0, [3 x i8] zeroinitializer, i32 0, i32 0, [4 x i8] zeroinitializer, ptr @.str.60, i64 80, ptr null }, align 8
@H5_page_blk_free_list = internal global { i8, [3 x i8], i32, i32, [4 x i8], i64, ptr, ptr } { i8 0, [3 x i8] zeroinitializer, i32 0, i32 0, [4 x i8] zeroinitializer, i64 0, ptr @.str.62, ptr null }, align 8
@H5_size_t_seq_free_list = internal global { { i8, [3 x i8], i32, i32, [4 x i8], i64, ptr, ptr }, i64 } { { i8, [3 x i8], i32, i32, [4 x i8], i64, ptr, ptr } { i8 0, [3 x i8] zeroinitializer, i32 0, i32 0, [4 x i8] zeroinitializer, i64 0, ptr @.str.64, ptr null }, i64 8 }, align 8

; Function Attrs: nounwind uwtable
define ptr @H5B_shared_new(ptr noundef %0, ptr noundef %1, i64 noundef %2) #0 {
  %4 = alloca ptr, align 8
  %5 = alloca ptr, align 8
  %6 = alloca i64, align 8
  %7 = alloca ptr, align 8
  %8 = alloca i64, align 8
  %9 = alloca ptr, align 8
  %10 = alloca i8, align 1
  store ptr %0, ptr %4, align 8, !tbaa !3
  store ptr %1, ptr %5, align 8, !tbaa !8
  store i64 %2, ptr %6, align 8, !tbaa !23
  call void @llvm.lifetime.start.p0(i64 8, ptr %7) #6
  store ptr null, ptr %7, align 8, !tbaa !15
  call void @llvm.lifetime.start.p0(i64 8, ptr %8) #6
  call void @llvm.lifetime.start.p0(i64 8, ptr %9) #6
  store ptr null, ptr %9, align 8, !tbaa !15
  call void @llvm.lifetime.start.p0(i64 1, ptr %10) #6
  store i8 0, ptr %10, align 1, !tbaa !19
  %11 = load i8, ptr @H5B_init_g, align 1, !tbaa !19, !range !21, !noundef !22
  %12 = trunc i8 %11 to i1
  br i1 %12, label %17, label %13

13:                                               ; preds = %3
  %14 = load i8, ptr @H5_libterm_g, align 1, !tbaa !19, !range !21, !noundef !22
  %15 = trunc i8 %14 to i1
  %16 = xor i1 %15, true
  br label %17

17:                                               ; preds = %13, %3
  %18 = phi i1 [ false, %3 ], [ %16, %13 ]
  %19 = xor i1 %18, true
  %20 = xor i1 %19, true
  %21 = zext i1 %20 to i32
  %22 = sext i32 %21 to i64
  %23 = call i64 @llvm.expect.i64(i64 %22, i64 0)
  %24 = icmp ne i64 %23, 0
  br i1 %24, label %25, label %26

25:                                               ; preds = %17
  store i8 1, ptr @H5B_init_g, align 1, !tbaa !19
  br label %26

26:                                               ; preds = %25, %17
  %27 = load i8, ptr @H5B_init_g, align 1, !tbaa !19, !range !21, !noundef !22
  %28 = trunc i8 %27 to i1
  br i1 %28, label %33, label %29

29:                                               ; preds = %26
  %30 = load i8, ptr @H5_libterm_g, align 1, !tbaa !19, !range !21, !noundef !22
  %31 = trunc i8 %30 to i1
  %32 = xor i1 %31, true
  br label %33

33:                                               ; preds = %29, %26
  %34 = phi i1 [ true, %26 ], [ %32, %29 ]
  %35 = xor i1 %34, true
  %36 = xor i1 %35, true
  %37 = zext i1 %36 to i32
  %38 = sext i32 %37 to i64
  %39 = call i64 @llvm.expect.i64(i64 %38, i64 1)
  %40 = icmp ne i64 %39, 0
  br i1 %40, label %41, label %245

41:                                               ; preds = %33
  %42 = call noalias ptr @H5FL_reg_calloc(ptr noundef @H5_H5B_shared_t_reg_free_list)
  store ptr %42, ptr %7, align 8, !tbaa !15
  %43 = icmp eq ptr null, %42
  br i1 %43, label %44, label %63

44:                                               ; preds = %41
  br label %45

45:                                               ; preds = %44
  br label %46

46:                                               ; preds = %45
  br label %47

47:                                               ; preds = %46
  %48 = load i64, ptr @H5E_BTREE_g, align 8, !tbaa !23
  %49 = load i64, ptr @H5E_CANTALLOC_g, align 8, !tbaa !23
  %50 = call i32 (ptr, ptr, i32, i64, i64, ptr, ...) @H5E_printf_stack(ptr noundef @.str.3, ptr noundef @__func__.H5B_shared_new, i32 noundef 1613, i64 noundef %48, i64 noundef %49, ptr noundef @.str.29)
  br label %51

51:                                               ; preds = %47
  br label %52

52:                                               ; preds = %51
  store i8 1, ptr %10, align 1, !tbaa !19
  %53 = load i8, ptr %10, align 1, !tbaa !19, !range !21, !noundef !22
  %54 = trunc i8 %53 to i1
  %55 = zext i1 %54 to i8
  store i8 %55, ptr %10, align 1, !tbaa !19
  br label %56

56:                                               ; preds = %52
  br label %57

57:                                               ; preds = %56
  br label %58

58:                                               ; preds = %57
  store ptr null, ptr %9, align 8, !tbaa !15
  br label %210

59:                                               ; No predecessors!
  br label %60

60:                                               ; preds = %59
  br label %61

61:                                               ; preds = %60
  br label %62

62:                                               ; preds = %61
  br label %63

63:                                               ; preds = %62, %41
  %64 = load ptr, ptr %5, align 8, !tbaa !8
  %65 = load ptr, ptr %7, align 8, !tbaa !15
  %66 = getelementptr inbounds nuw %struct.H5B_shared_t, ptr %65, i32 0, i32 0
  store ptr %64, ptr %66, align 8, !tbaa !69
  %67 = load ptr, ptr %4, align 8, !tbaa !3
  %68 = load ptr, ptr %5, align 8, !tbaa !8
  %69 = call i32 @H5F_kvalue(ptr noundef %67, ptr noundef %68)
  %70 = mul i32 2, %69
  %71 = load ptr, ptr %7, align 8, !tbaa !15
  %72 = getelementptr inbounds nuw %struct.H5B_shared_t, ptr %71, i32 0, i32 1
  store i32 %70, ptr %72, align 8, !tbaa !47
  %73 = load ptr, ptr %4, align 8, !tbaa !3
  %74 = call zeroext i8 @H5F_sizeof_addr(ptr noundef %73)
  %75 = zext i8 %74 to i64
  %76 = load ptr, ptr %7, align 8, !tbaa !15
  %77 = getelementptr inbounds nuw %struct.H5B_shared_t, ptr %76, i32 0, i32 5
  store i64 %75, ptr %77, align 8, !tbaa !85
  %78 = load ptr, ptr %4, align 8, !tbaa !3
  %79 = call zeroext i8 @H5F_sizeof_size(ptr noundef %78)
  %80 = zext i8 %79 to i64
  %81 = load ptr, ptr %7, align 8, !tbaa !15
  %82 = getelementptr inbounds nuw %struct.H5B_shared_t, ptr %81, i32 0, i32 6
  store i64 %80, ptr %82, align 8, !tbaa !86
  %83 = load i64, ptr %6, align 8, !tbaa !23
  %84 = load ptr, ptr %7, align 8, !tbaa !15
  %85 = getelementptr inbounds nuw %struct.H5B_shared_t, ptr %84, i32 0, i32 2
  store i64 %83, ptr %85, align 8, !tbaa !87
  %86 = load ptr, ptr %7, align 8, !tbaa !15
  %87 = getelementptr inbounds nuw %struct.H5B_shared_t, ptr %86, i32 0, i32 1
  %88 = load i32, ptr %87, align 8, !tbaa !47
  %89 = add i32 %88, 1
  %90 = zext i32 %89 to i64
  %91 = load ptr, ptr %5, align 8, !tbaa !8
  %92 = getelementptr inbounds nuw %struct.H5B_class_t, ptr %91, i32 0, i32 1
  %93 = load i64, ptr %92, align 8, !tbaa !67
  %94 = mul i64 %90, %93
  %95 = load ptr, ptr %7, align 8, !tbaa !15
  %96 = getelementptr inbounds nuw %struct.H5B_shared_t, ptr %95, i32 0, i32 4
  store i64 %94, ptr %96, align 8, !tbaa !44
  %97 = load ptr, ptr %4, align 8, !tbaa !3
  %98 = call zeroext i8 @H5F_sizeof_addr(ptr noundef %97)
  %99 = zext i8 %98 to i32
  %100 = mul nsw i32 2, %99
  %101 = add nsw i32 8, %100
  %102 = sext i32 %101 to i64
  %103 = load ptr, ptr %7, align 8, !tbaa !15
  %104 = getelementptr inbounds nuw %struct.H5B_shared_t, ptr %103, i32 0, i32 1
  %105 = load i32, ptr %104, align 8, !tbaa !47
  %106 = load ptr, ptr %4, align 8, !tbaa !3
  %107 = call zeroext i8 @H5F_sizeof_addr(ptr noundef %106)
  %108 = zext i8 %107 to i32
  %109 = mul i32 %105, %108
  %110 = zext i32 %109 to i64
  %111 = add i64 %102, %110
  %112 = load ptr, ptr %7, align 8, !tbaa !15
  %113 = getelementptr inbounds nuw %struct.H5B_shared_t, ptr %112, i32 0, i32 1
  %114 = load i32, ptr %113, align 8, !tbaa !47
  %115 = add i32 %114, 1
  %116 = zext i32 %115 to i64
  %117 = load ptr, ptr %7, align 8, !tbaa !15
  %118 = getelementptr inbounds nuw %struct.H5B_shared_t, ptr %117, i32 0, i32 2
  %119 = load i64, ptr %118, align 8, !tbaa !87
  %120 = mul i64 %116, %119
  %121 = add i64 %111, %120
  %122 = load ptr, ptr %7, align 8, !tbaa !15
  %123 = getelementptr inbounds nuw %struct.H5B_shared_t, ptr %122, i32 0, i32 3
  store i64 %121, ptr %123, align 8, !tbaa !49
  %124 = load ptr, ptr %7, align 8, !tbaa !15
  %125 = getelementptr inbounds nuw %struct.H5B_shared_t, ptr %124, i32 0, i32 3
  %126 = load i64, ptr %125, align 8, !tbaa !49
  %127 = call noalias ptr @H5FL_blk_malloc(ptr noundef @H5_page_blk_free_list, i64 noundef %126)
  %128 = load ptr, ptr %7, align 8, !tbaa !15
  %129 = getelementptr inbounds nuw %struct.H5B_shared_t, ptr %128, i32 0, i32 7
  store ptr %127, ptr %129, align 8, !tbaa !88
  %130 = icmp eq ptr null, %127
  br i1 %130, label %131, label %150

131:                                              ; preds = %63
  br label %132

132:                                              ; preds = %131
  br label %133

133:                                              ; preds = %132
  br label %134

134:                                              ; preds = %133
  %135 = load i64, ptr @H5E_BTREE_g, align 8, !tbaa !23
  %136 = load i64, ptr @H5E_CANTALLOC_g, align 8, !tbaa !23
  %137 = call i32 (ptr, ptr, i32, i64, i64, ptr, ...) @H5E_printf_stack(ptr noundef @.str.3, ptr noundef @__func__.H5B_shared_new, i32 noundef 1630, i64 noundef %135, i64 noundef %136, ptr noundef @.str.30)
  br label %138

138:                                              ; preds = %134
  br label %139

139:                                              ; preds = %138
  store i8 1, ptr %10, align 1, !tbaa !19
  %140 = load i8, ptr %10, align 1, !tbaa !19, !range !21, !noundef !22
  %141 = trunc i8 %140 to i1
  %142 = zext i1 %141 to i8
  store i8 %142, ptr %10, align 1, !tbaa !19
  br label %143

143:                                              ; preds = %139
  br label %144

144:                                              ; preds = %143
  br label %145

145:                                              ; preds = %144
  store ptr null, ptr %9, align 8, !tbaa !15
  br label %210

146:                                              ; No predecessors!
  br label %147

147:                                              ; preds = %146
  br label %148

148:                                              ; preds = %147
  br label %149

149:                                              ; preds = %148
  br label %150

150:                                              ; preds = %149, %63
  %151 = load ptr, ptr %7, align 8, !tbaa !15
  %152 = getelementptr inbounds nuw %struct.H5B_shared_t, ptr %151, i32 0, i32 7
  %153 = load ptr, ptr %152, align 8, !tbaa !88
  %154 = load ptr, ptr %7, align 8, !tbaa !15
  %155 = getelementptr inbounds nuw %struct.H5B_shared_t, ptr %154, i32 0, i32 3
  %156 = load i64, ptr %155, align 8, !tbaa !49
  call void @llvm.memset.p0.i64(ptr align 1 %153, i8 0, i64 %156, i1 false)
  %157 = load ptr, ptr %7, align 8, !tbaa !15
  %158 = getelementptr inbounds nuw %struct.H5B_shared_t, ptr %157, i32 0, i32 1
  %159 = load i32, ptr %158, align 8, !tbaa !47
  %160 = add i32 %159, 1
  %161 = zext i32 %160 to i64
  %162 = call noalias ptr @H5FL_seq_malloc(ptr noundef @H5_size_t_seq_free_list, i64 noundef %161)
  %163 = load ptr, ptr %7, align 8, !tbaa !15
  %164 = getelementptr inbounds nuw %struct.H5B_shared_t, ptr %163, i32 0, i32 8
  store ptr %162, ptr %164, align 8, !tbaa !59
  %165 = icmp eq ptr null, %162
  br i1 %165, label %166, label %185

166:                                              ; preds = %150
  br label %167

167:                                              ; preds = %166
  br label %168

168:                                              ; preds = %167
  br label %169

169:                                              ; preds = %168
  %170 = load i64, ptr @H5E_BTREE_g, align 8, !tbaa !23
  %171 = load i64, ptr @H5E_CANTALLOC_g, align 8, !tbaa !23
  %172 = call i32 (ptr, ptr, i32, i64, i64, ptr, ...) @H5E_printf_stack(ptr noundef @.str.3, ptr noundef @__func__.H5B_shared_new, i32 noundef 1634, i64 noundef %170, i64 noundef %171, ptr noundef @.str.31)
  br label %173

173:                                              ; preds = %169
  br label %174

174:                                              ; preds = %173
  store i8 1, ptr %10, align 1, !tbaa !19
  %175 = load i8, ptr %10, align 1, !tbaa !19, !range !21, !noundef !22
  %176 = trunc i8 %175 to i1
  %177 = zext i1 %176 to i8
  store i8 %177, ptr %10, align 1, !tbaa !19
  br label %178

178:                                              ; preds = %174
  br label %179

179:                                              ; preds = %178
  br label %180

180:                                              ; preds = %179
  store ptr null, ptr %9, align 8, !tbaa !15
  br label %210

181:                                              ; No predecessors!
  br label %182

182:                                              ; preds = %181
  br label %183

183:                                              ; preds = %182
  br label %184

184:                                              ; preds = %183
  br label %185

185:                                              ; preds = %184, %150
  store i64 0, ptr %8, align 8, !tbaa !23
  br label %186

186:                                              ; preds = %205, %185
  %187 = load i64, ptr %8, align 8, !tbaa !23
  %188 = load ptr, ptr %7, align 8, !tbaa !15
  %189 = getelementptr inbounds nuw %struct.H5B_shared_t, ptr %188, i32 0, i32 1
  %190 = load i32, ptr %189, align 8, !tbaa !47
  %191 = add i32 %190, 1
  %192 = zext i32 %191 to i64
  %193 = icmp ult i64 %187, %192
  br i1 %193, label %194, label %208

194:                                              ; preds = %186
  %195 = load i64, ptr %8, align 8, !tbaa !23
  %196 = load ptr, ptr %5, align 8, !tbaa !8
  %197 = getelementptr inbounds nuw %struct.H5B_class_t, ptr %196, i32 0, i32 1
  %198 = load i64, ptr %197, align 8, !tbaa !67
  %199 = mul i64 %195, %198
  %200 = load ptr, ptr %7, align 8, !tbaa !15
  %201 = getelementptr inbounds nuw %struct.H5B_shared_t, ptr %200, i32 0, i32 8
  %202 = load ptr, ptr %201, align 8, !tbaa !59
  %203 = load i64, ptr %8, align 8, !tbaa !23
  %204 = getelementptr inbounds nuw i64, ptr %202, i64 %203
  store i64 %199, ptr %204, align 8, !tbaa !23
  br label %205

205:                                              ; preds = %194
  %206 = load i64, ptr %8, align 8, !tbaa !23
  %207 = add i64 %206, 1
  store i64 %207, ptr %8, align 8, !tbaa !23
  br label %186, !llvm.loop !89

208:                                              ; preds = %186
  %209 = load ptr, ptr %7, align 8, !tbaa !15
  store ptr %209, ptr %9, align 8, !tbaa !15
  br label %210

210:                                              ; preds = %208, %180, %145, %58
  %211 = load ptr, ptr %9, align 8, !tbaa !15
  %212 = icmp eq ptr null, %211
  br i1 %212, label %213, label %244

213:                                              ; preds = %210
  %214 = load ptr, ptr %7, align 8, !tbaa !15
  %215 = icmp ne ptr %214, null
  br i1 %215, label %216, label %243

216:                                              ; preds = %213
  %217 = load ptr, ptr %7, align 8, !tbaa !15
  %218 = getelementptr inbounds nuw %struct.H5B_shared_t, ptr %217, i32 0, i32 7
  %219 = load ptr, ptr %218, align 8, !tbaa !88
  %220 = icmp ne ptr %219, null
  br i1 %220, label %221, label %228

221:                                              ; preds = %216
  %222 = load ptr, ptr %7, align 8, !tbaa !15
  %223 = getelementptr inbounds nuw %struct.H5B_shared_t, ptr %222, i32 0, i32 7
  %224 = load ptr, ptr %223, align 8, !tbaa !88
  %225 = call ptr @H5FL_blk_free(ptr noundef @H5_page_blk_free_list, ptr noundef %224)
  %226 = load ptr, ptr %7, align 8, !tbaa !15
  %227 = getelementptr inbounds nuw %struct.H5B_shared_t, ptr %226, i32 0, i32 7
  store ptr %225, ptr %227, align 8, !tbaa !88
  br label %228

228:                                              ; preds = %221, %216
  %229 = load ptr, ptr %7, align 8, !tbaa !15
  %230 = getelementptr inbounds nuw %struct.H5B_shared_t, ptr %229, i32 0, i32 8
  %231 = load ptr, ptr %230, align 8, !tbaa !59
  %232 = icmp ne ptr %231, null
  br i1 %232, label %233, label %240

233:                                              ; preds = %228
  %234 = load ptr, ptr %7, align 8, !tbaa !15
  %235 = getelementptr inbounds nuw %struct.H5B_shared_t, ptr %234, i32 0, i32 8
  %236 = load ptr, ptr %235, align 8, !tbaa !59
  %237 = call ptr @H5FL_seq_free(ptr noundef @H5_size_t_seq_free_list, ptr noundef %236)
  %238 = load ptr, ptr %7, align 8, !tbaa !15
  %239 = getelementptr inbounds nuw %struct.H5B_shared_t, ptr %238, i32 0, i32 8
  store ptr %237, ptr %239, align 8, !tbaa !59
  br label %240

240:                                              ; preds = %233, %228
  %241 = load ptr, ptr %7, align 8, !tbaa !15
  %242 = call ptr @H5FL_reg_free(ptr noundef @H5_H5B_shared_t_reg_free_list, ptr noundef %241)
  store ptr %242, ptr %7, align 8, !tbaa !15
  br label %243

243:                                              ; preds = %240, %213
  br label %244

244:                                              ; preds = %243, %210
  br label %245

245:                                              ; preds = %244, %33
  %246 = load ptr, ptr %9, align 8, !tbaa !15
  call void @llvm.lifetime.end.p0(i64 1, ptr %10) #6
  call void @llvm.lifetime.end.p0(i64 8, ptr %9) #6
  call void @llvm.lifetime.end.p0(i64 8, ptr %8) #6
  call void @llvm.lifetime.end.p0(i64 8, ptr %7) #6
  ret ptr %246
}