; Function Attrs: nounwind uwtable
define ptr @H5B_shared_new(ptr noundef %0, ptr noundef %1, i64 noundef %2) local_unnamed_addr #0 {
  %4 = load i8, ptr @H5B_init_g, align 1, !tbaa !3, !range !7, !noundef !8
  %5 = trunc nuw i8 %4 to i1
  %6 = load i8, ptr @H5_libterm_g, align 1, !range !7
  %7 = trunc nuw i8 %6 to i1
  %8 = select i1 %5, i1 true, i1 %7
  br i1 %8, label %9, label %.thread, !prof !9

.thread:                                          ; preds = %3
  store i8 1, ptr @H5B_init_g, align 1, !tbaa !3
  br label %12

9:                                                ; preds = %3
  %10 = xor i1 %7, true
  %11 = select i1 %5, i1 true, i1 %10
  br i1 %11, label %12, label %.thread54, !prof !72

12:                                               ; preds = %.thread, %9
  %13 = tail call noalias ptr @H5FL_reg_calloc(ptr noundef nonnull @H5_H5B_shared_t_reg_free_list) #6
  %14 = icmp eq ptr %13, null
  br i1 %14, label %15, label %19

15:                                               ; preds = %12
  %16 = load i64, ptr @H5E_BTREE_g, align 8, !tbaa !29
  %17 = load i64, ptr @H5E_CANTALLOC_g, align 8, !tbaa !29
  %18 = tail call i32 (ptr, ptr, i32, i64, i64, ptr, ...) @H5E_printf_stack(ptr noundef nonnull @.str.3, ptr noundef nonnull @__func__.H5B_shared_new, i32 noundef 1613, i64 noundef %16, i64 noundef %17, ptr noundef nonnull @.str.29) #6
  br label %.thread54

19:                                               ; preds = %12
  store ptr %1, ptr %13, align 8, !tbaa !58
  %20 = tail call i32 @H5F_kvalue(ptr noundef %0, ptr noundef %1) #6
  %21 = shl i32 %20, 1
  %22 = getelementptr inbounds nuw i8, ptr %13, i64 8
  store i32 %21, ptr %22, align 8, !tbaa !37
  %23 = tail call zeroext i8 @H5F_sizeof_addr(ptr noundef %0) #6
  %24 = zext i8 %23 to i64
  %25 = getelementptr inbounds nuw i8, ptr %13, i64 40
  store i64 %24, ptr %25, align 8, !tbaa !75
  %26 = tail call zeroext i8 @H5F_sizeof_size(ptr noundef %0) #6
  %27 = zext i8 %26 to i64
  %28 = getelementptr inbounds nuw i8, ptr %13, i64 48
  store i64 %27, ptr %28, align 8, !tbaa !76
  %29 = getelementptr inbounds nuw i8, ptr %13, i64 16
  store i64 %2, ptr %29, align 8, !tbaa !77
  %30 = or disjoint i32 %21, 1
  %31 = zext i32 %30 to i64
  %32 = getelementptr inbounds nuw i8, ptr %1, i64 8
  %33 = load i64, ptr %32, align 8, !tbaa !55
  %34 = mul i64 %33, %31
  %35 = getelementptr inbounds nuw i8, ptr %13, i64 32
  store i64 %34, ptr %35, align 8, !tbaa !33
  %36 = tail call zeroext i8 @H5F_sizeof_addr(ptr noundef %0) #6
  %37 = zext i8 %36 to i64
  %38 = shl nuw nsw i64 %37, 1
  %39 = add nuw nsw i64 %38, 8
  %40 = tail call zeroext i8 @H5F_sizeof_addr(ptr noundef %0) #6
  %41 = zext i8 %40 to i32
  %42 = mul i32 %21, %41
  %43 = zext i32 %42 to i64
  %44 = add nuw nsw i64 %39, %43
  %45 = mul i64 %2, %31
  %46 = add i64 %44, %45
  %47 = getelementptr inbounds nuw i8, ptr %13, i64 24
  store i64 %46, ptr %47, align 8, !tbaa !39
  %48 = tail call noalias ptr @H5FL_blk_malloc(ptr noundef nonnull @H5_page_blk_free_list, i64 noundef %46) #6
  %49 = getelementptr inbounds nuw i8, ptr %13, i64 56
  store ptr %48, ptr %49, align 8, !tbaa !78
  %50 = icmp eq ptr %48, null
  br i1 %50, label %.thread59, label %54

.thread59:                                        ; preds = %19
  %51 = load i64, ptr @H5E_BTREE_g, align 8, !tbaa !29
  %52 = load i64, ptr @H5E_CANTALLOC_g, align 8, !tbaa !29
  %53 = tail call i32 (ptr, ptr, i32, i64, i64, ptr, ...) @H5E_printf_stack(ptr noundef nonnull @.str.3, ptr noundef nonnull @__func__.H5B_shared_new, i32 noundef 1630, i64 noundef %51, i64 noundef %52, ptr noundef nonnull @.str.30) #6
  br label %68

54:                                               ; preds = %19
  tail call void @llvm.memset.p0.i64(ptr nonnull align 1 %48, i8 0, i64 %46, i1 false)
  %55 = tail call noalias ptr @H5FL_seq_malloc(ptr noundef nonnull @H5_size_t_seq_free_list, i64 noundef %31) #6
  %56 = getelementptr inbounds nuw i8, ptr %13, i64 64
  store ptr %55, ptr %56, align 8, !tbaa !47
  %57 = icmp eq ptr %55, null
  br i1 %57, label %63, label %.lr.ph

.lr.ph:                                           ; preds = %54
  %58 = load i64, ptr %32, align 8, !tbaa !55
  br label %59

59:                                               ; preds = %.lr.ph, %59
  %.04757 = phi i64 [ 0, %.lr.ph ], [ %62, %59 ]
  %60 = mul i64 %58, %.04757
  %61 = getelementptr inbounds nuw i64, ptr %55, i64 %.04757
  store i64 %60, ptr %61, align 8, !tbaa !29
  %62 = add nuw nsw i64 %.04757, 1
  %exitcond.not = icmp eq i64 %62, %31
  br i1 %exitcond.not, label %.thread54, label %59, !llvm.loop !79

63:                                               ; preds = %54
  %64 = load i64, ptr @H5E_BTREE_g, align 8, !tbaa !29
  %65 = load i64, ptr @H5E_CANTALLOC_g, align 8, !tbaa !29
  %66 = tail call i32 (ptr, ptr, i32, i64, i64, ptr, ...) @H5E_printf_stack(ptr noundef nonnull @.str.3, ptr noundef nonnull @__func__.H5B_shared_new, i32 noundef 1634, i64 noundef %64, i64 noundef %65, ptr noundef nonnull @.str.31) #6
  %67 = tail call ptr @H5FL_blk_free(ptr noundef nonnull @H5_page_blk_free_list, ptr noundef nonnull %48) #6
  store ptr %67, ptr %49, align 8, !tbaa !78
  br label %68

68:                                               ; preds = %.thread59, %63
  %69 = getelementptr inbounds nuw i8, ptr %13, i64 64
  %70 = load ptr, ptr %69, align 8, !tbaa !47
  %.not53 = icmp eq ptr %70, null
  br i1 %.not53, label %73, label %71

71:                                               ; preds = %68
  %72 = tail call ptr @H5FL_seq_free(ptr noundef nonnull @H5_size_t_seq_free_list, ptr noundef nonnull %70) #6
  store ptr %72, ptr %69, align 8, !tbaa !47
  br label %73

73:                                               ; preds = %71, %68
  %74 = tail call ptr @H5FL_reg_free(ptr noundef nonnull @H5_H5B_shared_t_reg_free_list, ptr noundef nonnull %13) #6
  br label %.thread54

.thread54:                                        ; preds = %59, %15, %73, %9
  %.0 = phi ptr [ null, %73 ], [ null, %9 ], [ null, %15 ], [ %13, %59 ]
  ret ptr %.0
}